target datalayout = "e-m:e-p270:32:32-p271:32:32-p272:64:64-i64:64-i128:128-f80:128-n8:16:32:64-S128"
target triple = "x86_64-pc-linux-gnu"

%struct.SASL = type { ptr, i32, ptr, i16, i16, i16, i8 }
%struct.SASLproto = type { ptr, ptr, ptr, ptr, ptr, i64, i32, i32, i16, i16 }

; Function Attrs: nounwind uwtable
define internal i32 @get_server_message(ptr noundef %0, ptr noundef %1, ptr noundef %2) #0 {
  %4 = alloca ptr, align 8
  %5 = alloca ptr, align 8
  %6 = alloca ptr, align 8
  %7 = alloca i32, align 4
  %8 = alloca ptr, align 8
  %9 = alloca i64, align 8
  %10 = alloca ptr, align 8
  store ptr %0, ptr %4, align 8, !tbaa !25
  store ptr %1, ptr %5, align 8, !tbaa !30
  store ptr %2, ptr %6, align 8, !tbaa !125
  call void @llvm.lifetime.start.p0(i64 4, ptr %7) #4
  store i32 0, ptr %7, align 4, !tbaa !16
  %11 = load ptr, ptr %4, align 8, !tbaa !25
  %12 = getelementptr inbounds nuw %struct.SASL, ptr %11, i32 0, i32 0
  %13 = load ptr, ptr %12, align 8, !tbaa !97
  %14 = getelementptr inbounds nuw %struct.SASLproto, ptr %13, i32 0, i32 4
  %15 = load ptr, ptr %14, align 8, !tbaa !132
  %16 = load ptr, ptr %5, align 8, !tbaa !30
  %17 = load ptr, ptr %6, align 8, !tbaa !125
  %18 = call i32 %15(ptr noundef %16, ptr noundef %17)
  store i32 %18, ptr %7, align 4, !tbaa !16
  %19 = load i32, ptr %7, align 4, !tbaa !16
  %20 = icmp ne i32 %19, 0
  br i1 %20, label %54, label %21

21:                                               ; preds = %3
  %22 = load ptr, ptr %4, align 8, !tbaa !25
  %23 = getelementptr inbounds nuw %struct.SASL, ptr %22, i32 0, i32 0
  %24 = load ptr, ptr %23, align 8, !tbaa !97
  %25 = getelementptr inbounds nuw %struct.SASLproto, ptr %24, i32 0, i32 9
  %26 = load i16, ptr %25, align 2, !tbaa !127
  %27 = zext i16 %26 to i32
  %28 = and i32 %27, 1
  %29 = icmp ne i32 %28, 0
  br i1 %29, label %30, label %54

30:                                               ; preds = %21
  call void @llvm.lifetime.start.p0(i64 8, ptr %8) #4
  call void @llvm.lifetime.start.p0(i64 8, ptr %9) #4
  call void @llvm.lifetime.start.p0(i64 8, ptr %10) #4
  %31 = load ptr, ptr %6, align 8, !tbaa !125
  %32 = call ptr @Curl_bufref_ptr(ptr noundef %31)
  store ptr %32, ptr %10, align 8, !tbaa !10
  %33 = load ptr, ptr %10, align 8, !tbaa !10
  %34 = load i8, ptr %33, align 1, !tbaa !22
  %35 = icmp ne i8 %34, 0
  br i1 %35, label %36, label %41

36:                                               ; preds = %30
  %37 = load ptr, ptr %10, align 8, !tbaa !10
  %38 = load i8, ptr %37, align 1, !tbaa !22
  %39 = sext i8 %38 to i32
  %40 = icmp eq i32 %39, 61
  br i1 %40, label %41, label %43

41:                                               ; preds = %36, %30
  %42 = load ptr, ptr %6, align 8, !tbaa !125
  call void @Curl_bufref_set(ptr noundef %42, ptr noundef null, i64 noundef 0, ptr noundef null)
  br label %53

43:                                               ; preds = %36
  %44 = load ptr, ptr %10, align 8, !tbaa !10
  %45 = call i32 @Curl_base64_decode(ptr noundef %44, ptr noundef %8, ptr noundef %9)
  store i32 %45, ptr %7, align 4, !tbaa !16
  %46 = load i32, ptr %7, align 4, !tbaa !16
  %47 = icmp ne i32 %46, 0
  br i1 %47, label %52, label %48

48:                                               ; preds = %43
  %49 = load ptr, ptr %6, align 8, !tbaa !125
  %50 = load ptr, ptr %8, align 8, !tbaa !10
  %51 = load i64, ptr %9, align 8, !tbaa !12
  call void @Curl_bufref_set(ptr noundef %49, ptr noundef %50, i64 noundef %51, ptr noundef @curl_free)
  br label %52

52:                                               ; preds = %48, %43
  br label %53

53:                                               ; preds = %52, %41
  call void @llvm.lifetime.end.p0(i64 8, ptr %10) #4
  call void @llvm.lifetime.end.p0(i64 8, ptr %9) #4
  call void @llvm.lifetime.end.p0(i64 8, ptr %8) #4
  br label %54

54:                                               ; preds = %53, %21, %3
  %55 = load i32, ptr %7, align 4, !tbaa !16
  call void @llvm.lifetime.end.p0(i64 4, ptr %7) #4
  ret i32 %55
}