; Function Attrs: nounwind uwtable
define internal fastcc i32 @get_server_message(ptr noundef readonly captures(none) %0, ptr noundef %1, ptr noundef nonnull %2) unnamed_addr #0 {
  %4 = alloca ptr, align 8
  %5 = alloca i64, align 8
  %6 = load ptr, ptr %0, align 8, !tbaa !86
  %7 = getelementptr inbounds nuw i8, ptr %6, i64 32
  %8 = load ptr, ptr %7, align 8, !tbaa !116
  %9 = tail call i32 %8(ptr noundef %1, ptr noundef nonnull %2) #8
  %.not = icmp eq i32 %9, 0
  br i1 %.not, label %10, label %25

10:                                               ; preds = %3
  %11 = load ptr, ptr %0, align 8, !tbaa !86
  %12 = getelementptr inbounds nuw i8, ptr %11, i64 58
  %13 = load i16, ptr %12, align 2, !tbaa !109
  %14 = and i16 %13, 1
  %.not17 = icmp eq i16 %14, 0
  br i1 %.not17, label %25, label %15

15:                                               ; preds = %10
  call void @llvm.lifetime.start.p0(i64 8, ptr nonnull %4) #8
  call void @llvm.lifetime.start.p0(i64 8, ptr nonnull %5) #8
  %16 = tail call ptr @Curl_bufref_ptr(ptr noundef nonnull %2) #8
  %17 = load i8, ptr %16, align 1, !tbaa !11
  switch i8 %17, label %19 [
    i8 0, label %18
    i8 61, label %18
  ]

18:                                               ; preds = %15, %15
  tail call void @Curl_bufref_set(ptr noundef nonnull %2, ptr noundef null, i64 noundef 0, ptr noundef null) #8
  br label %24

19:                                               ; preds = %15
  %20 = call i32 @Curl_base64_decode(ptr noundef nonnull %16, ptr noundef nonnull %4, ptr noundef nonnull %5) #8
  %.not19 = icmp eq i32 %20, 0
  br i1 %.not19, label %21, label %24

21:                                               ; preds = %19
  %22 = load ptr, ptr %4, align 8, !tbaa !95
  %23 = load i64, ptr %5, align 8, !tbaa !15
  call void @Curl_bufref_set(ptr noundef nonnull %2, ptr noundef %22, i64 noundef %23, ptr noundef nonnull @curl_free) #8
  br label %24

24:                                               ; preds = %19, %21, %18
  %.1 = phi i32 [ 0, %18 ], [ %20, %19 ], [ 0, %21 ]
  call void @llvm.lifetime.end.p0(i64 8, ptr nonnull %5) #8
  call void @llvm.lifetime.end.p0(i64 8, ptr nonnull %4) #8
  br label %25

25:                                               ; preds = %24, %10, %3
  %.0 = phi i32 [ %9, %3 ], [ %.1, %24 ], [ 0, %10 ]
  ret i32 %.0
}